target datalayout = "e-m:e-p270:32:32-p271:32:32-p272:64:64-i64:64-i128:128-f80:128-n8:16:32:64-S128"
target triple = "x86_64-pc-linux-gnu"

%struct.listpackEntry = type { ptr, i32, i64 }

; Function Attrs: nounwind uwtable
define dso_local ptr @hashSdsFromListpackEntry(ptr noundef %0) #1 {
  %2 = alloca ptr, align 8
  store ptr %0, ptr %2, align 8, !tbaa !10
  %3 = load ptr, ptr %2, align 8, !tbaa !10
  %4 = getelementptr inbounds nuw %struct.listpackEntry, ptr %3, i32 0, i32 0
  %5 = load ptr, ptr %4, align 8, !tbaa !76
  %6 = icmp ne ptr %5, null
  br i1 %6, label %7, label %16

7:                                                ; preds = %1
  %8 = load ptr, ptr %2, align 8, !tbaa !10
  %9 = getelementptr inbounds nuw %struct.listpackEntry, ptr %8, i32 0, i32 0
  %10 = load ptr, ptr %9, align 8, !tbaa !76
  %11 = load ptr, ptr %2, align 8, !tbaa !10
  %12 = getelementptr inbounds nuw %struct.listpackEntry, ptr %11, i32 0, i32 1
  %13 = load i32, ptr %12, align 8, !tbaa !78
  %14 = zext i32 %13 to i64
  %15 = call ptr @sdsnewlen(ptr noundef %10, i64 noundef %14)
  br label %21

16:                                               ; preds = %1
  %17 = load ptr, ptr %2, align 8, !tbaa !10
  %18 = getelementptr inbounds nuw %struct.listpackEntry, ptr %17, i32 0, i32 2
  %19 = load i64, ptr %18, align 8, !tbaa !79
  %20 = call ptr @sdsfromlonglong(i64 noundef %19)
  br label %21

21:                                               ; preds = %16, %7
  %22 = phi ptr [ %15, %7 ], [ %20, %16 ]
  ret ptr %22
}